target datalayout = "e-m:e-p270:32:32-p271:32:32-p272:64:64-i64:64-i128:128-f80:128-n8:16:32:64-S128"
target triple = "x86_64-pc-linux-gnu"

%"struct.cvc5::internal::theory::SubsolverSetupInfo" = type { ptr, ptr, %"class.cvc5::internal::TypeNode", %"class.cvc5::internal::TypeNode" }
%"class.cvc5::internal::TypeNode" = type { ptr }

@_ZN4cvc58internal6theory18SubsolverSetupInfoC1ERKNS0_3EnvE = hidden unnamed_addr alias void (ptr, ptr), ptr @_ZN4cvc58internal6theory18SubsolverSetupInfoC2ERKNS0_3EnvE

; Function Attrs: mustprogress uwtable
define hidden void @_ZN4cvc58internal6theory19initializeSubsolverERSt10unique_ptrINS0_12SolverEngineESt14default_deleteIS3_EERKNS0_3EnvEbm(ptr noundef nonnull align 8 dereferenceable(8) %0, ptr noundef nonnull align 8 dereferenceable(696) %1, i1 noundef zeroext %2, i64 noundef %3) #4 personality ptr @__gxx_personality_v0 {
  %5 = alloca ptr, align 8
  %6 = alloca ptr, align 8
  %7 = alloca i8, align 1
  %8 = alloca i64, align 8
  %9 = alloca %"struct.cvc5::internal::theory::SubsolverSetupInfo", align 8
  %10 = alloca ptr, align 8
  %11 = alloca i32, align 4
  store ptr %0, ptr %5, align 8, !tbaa !33
  store ptr %1, ptr %6, align 8, !tbaa !17
  %12 = zext i1 %2 to i8
  store i8 %12, ptr %7, align 1, !tbaa !21
  store i64 %3, ptr %8, align 8, !tbaa !35
  call void @llvm.lifetime.start.p0(i64 32, ptr %9) #3
  %13 = load ptr, ptr %6, align 8, !tbaa !17
  call void @_ZN4cvc58internal6theory18SubsolverSetupInfoC1ERKNS0_3EnvE(ptr noundef nonnull align 8 dereferenceable(32) %9, ptr noundef nonnull align 8 dereferenceable(696) %13)
  %14 = load ptr, ptr %5, align 8, !tbaa !33
  %15 = load i8, ptr %7, align 1, !tbaa !21, !range !23, !noundef !24
  %16 = trunc i8 %15 to i1
  %17 = load i64, ptr %8, align 8, !tbaa !35
  invoke void @_ZN4cvc58internal6theory19initializeSubsolverERSt10unique_ptrINS0_12SolverEngineESt14default_deleteIS3_EERKNS1_18SubsolverSetupInfoEbm(ptr noundef nonnull align 8 dereferenceable(8) %14, ptr noundef nonnull align 8 dereferenceable(32) %9, i1 noundef zeroext %16, i64 noundef %17)
          to label %18 unwind label %19

18:                                               ; preds = %4
  call void @_ZN4cvc58internal6theory18SubsolverSetupInfoD2Ev(ptr noundef nonnull align 8 dereferenceable(32) %9) #3
  call void @llvm.lifetime.end.p0(i64 32, ptr %9) #3
  ret void

19:                                               ; preds = %4
  %20 = landingpad { ptr, i32 }
          cleanup
  %21 = extractvalue { ptr, i32 } %20, 0
  store ptr %21, ptr %10, align 8
  %22 = extractvalue { ptr, i32 } %20, 1
  store i32 %22, ptr %11, align 4
  call void @_ZN4cvc58internal6theory18SubsolverSetupInfoD2Ev(ptr noundef nonnull align 8 dereferenceable(32) %9) #3
  call void @llvm.lifetime.end.p0(i64 32, ptr %9) #3
  br label %23

23:                                               ; preds = %19
  %24 = load ptr, ptr %10, align 8
  %25 = load i32, ptr %11, align 4
  %26 = insertvalue { ptr, i32 } poison, ptr %24, 0
  %27 = insertvalue { ptr, i32 } %26, i32 %25, 1
  resume { ptr, i32 } %27
}