; Function Attrs: mustprogress uwtable
define hidden void @_ZN4cvc58internal6theory19initializeSubsolverERSt10unique_ptrINS0_12SolverEngineESt14default_deleteIS3_EERKNS0_3EnvEbm(ptr noundef nonnull align 8 captures(none) dereferenceable(8) %0, ptr noundef nonnull align 8 dereferenceable(696) %1, i1 noundef zeroext %2, i64 noundef %3) local_unnamed_addr #3 personality ptr @__gxx_personality_v0 {
  %5 = alloca %"struct.cvc5::internal::theory::SubsolverSetupInfo", align 8
  call void @llvm.lifetime.start.p0(i64 32, ptr nonnull %5) #20
  %6 = tail call noundef nonnull align 8 dereferenceable(408) ptr @_ZNK4cvc58internal3Env10getOptionsEv(ptr noundef nonnull align 8 dereferenceable(696) %1)
  store ptr %6, ptr %5, align 8, !tbaa !3
  %7 = getelementptr inbounds nuw i8, ptr %5, i64 8
  %8 = tail call noundef nonnull align 8 dereferenceable(88) ptr @_ZNK4cvc58internal3Env12getLogicInfoEv(ptr noundef nonnull align 8 dereferenceable(696) %1)
  store ptr %8, ptr %7, align 8, !tbaa !8
  %9 = getelementptr inbounds nuw i8, ptr %5, i64 16
  call void @_ZNK4cvc58internal3Env13getSepLocTypeEv(ptr dead_on_unwind nonnull writable sret(%"class.cvc5::internal::TypeNode") align 8 %9, ptr noundef nonnull align 8 dereferenceable(696) %1)
  %10 = getelementptr inbounds nuw i8, ptr %5, i64 24
  invoke void @_ZNK4cvc58internal3Env14getSepDataTypeEv(ptr dead_on_unwind nonnull writable sret(%"class.cvc5::internal::TypeNode") align 8 %10, ptr noundef nonnull align 8 dereferenceable(696) %1)
          to label %_ZN4cvc58internal6theory18SubsolverSetupInfoC2ERKNS0_3EnvE.exit unwind label %11

common.resume:                                    ; preds = %40, %11
  %common.resume.op = phi { ptr, i32 } [ %12, %11 ], [ %41, %40 ]
  resume { ptr, i32 } %common.resume.op

11:                                               ; preds = %4
  %12 = landingpad { ptr, i32 }
          cleanup
  call void @_ZN4cvc58internal8TypeNodeD2Ev(ptr noundef nonnull align 8 dereferenceable(8) %9) #20
  br label %common.resume

_ZN4cvc58internal6theory18SubsolverSetupInfoC2ERKNS0_3EnvE.exit: ; preds = %4
  invoke void @_ZN4cvc58internal6theory19initializeSubsolverERSt10unique_ptrINS0_12SolverEngineESt14default_deleteIS3_EERKNS1_18SubsolverSetupInfoEbm(ptr noundef nonnull align 8 dereferenceable(8) %0, ptr noundef nonnull align 8 dereferenceable(32) %5, i1 noundef zeroext %2, i64 noundef %3)
          to label %13 unwind label %40

13:                                               ; preds = %_ZN4cvc58internal6theory18SubsolverSetupInfoC2ERKNS0_3EnvE.exit
  %14 = load ptr, ptr %10, align 8, !tbaa !10
  %15 = load i64, ptr %14, align 8
  %16 = and i64 %15, 1152920405095219200
  %.not.i.i.i = icmp eq i64 %16, 1152920405095219200
  br i1 %.not.i.i.i, label %_ZN4cvc58internal8TypeNodeD2Ev.exit.i, label %17, !prof !14

17:                                               ; preds = %13
  %18 = add i64 %15, 1152920405095219200
  %19 = and i64 %18, 1152920405095219200
  %20 = and i64 %15, -1152920405095219201
  %21 = or disjoint i64 %19, %20
  store i64 %21, ptr %14, align 8
  %22 = icmp eq i64 %19, 0
  br i1 %22, label %23, label %_ZN4cvc58internal8TypeNodeD2Ev.exit.i, !prof !14

23:                                               ; preds = %17
  invoke void @_ZN4cvc58internal4expr9NodeValue15markForDeletionEv(ptr noundef nonnull align 8 dereferenceable(24) %14)
          to label %_ZN4cvc58internal8TypeNodeD2Ev.exit.i unwind label %24

24:                                               ; preds = %23
  %25 = landingpad { ptr, i32 }
          catch ptr null
  %26 = extractvalue { ptr, i32 } %25, 0
  call void @__clang_call_terminate(ptr %26) #21
  unreachable

_ZN4cvc58internal8TypeNodeD2Ev.exit.i:            ; preds = %23, %17, %13
  %27 = load ptr, ptr %9, align 8, !tbaa !10
  %28 = load i64, ptr %27, align 8
  %29 = and i64 %28, 1152920405095219200
  %.not.i.i1.i = icmp eq i64 %29, 1152920405095219200
  br i1 %.not.i.i1.i, label %_ZN4cvc58internal6theory18SubsolverSetupInfoD2Ev.exit, label %30, !prof !14

30:                                               ; preds = %_ZN4cvc58internal8TypeNodeD2Ev.exit.i
  %31 = add i64 %28, 1152920405095219200
  %32 = and i64 %31, 1152920405095219200
  %33 = and i64 %28, -1152920405095219201
  %34 = or disjoint i64 %32, %33
  store i64 %34, ptr %27, align 8
  %35 = icmp eq i64 %32, 0
  br i1 %35, label %36, label %_ZN4cvc58internal6theory18SubsolverSetupInfoD2Ev.exit, !prof !14

36:                                               ; preds = %30
  invoke void @_ZN4cvc58internal4expr9NodeValue15markForDeletionEv(ptr noundef nonnull align 8 dereferenceable(24) %27)
          to label %_ZN4cvc58internal6theory18SubsolverSetupInfoD2Ev.exit unwind label %37

37:                                               ; preds = %36
  %38 = landingpad { ptr, i32 }
          catch ptr null
  %39 = extractvalue { ptr, i32 } %38, 0
  call void @__clang_call_terminate(ptr %39) #21
  unreachable

_ZN4cvc58internal6theory18SubsolverSetupInfoD2Ev.exit: ; preds = %_ZN4cvc58internal8TypeNodeD2Ev.exit.i, %30, %36
  call void @llvm.lifetime.end.p0(i64 32, ptr nonnull %5) #20
  ret void

40:                                               ; preds = %_ZN4cvc58internal6theory18SubsolverSetupInfoC2ERKNS0_3EnvE.exit
  %41 = landingpad { ptr, i32 }
          cleanup
  call void @_ZN4cvc58internal6theory18SubsolverSetupInfoD2Ev(ptr noundef nonnull align 8 dereferenceable(32) %5) #20
  call void @llvm.lifetime.end.p0(i64 32, ptr nonnull %5) #20
  br label %common.resume
}